; Function Attrs: nounwind uwtable
define void @Abc_NtkPrintPoEquivs(ptr noundef %0) local_unnamed_addr #0 {
  %2 = getelementptr i8, ptr %0, i64 32
  %.val34 = load ptr, ptr %2, align 8
  %3 = getelementptr i8, ptr %.val34, i64 4
  %.val34.val = load i32, ptr %3, align 4
  %4 = add i32 %.val34.val, -1
  %or.cond.i.i = icmp ult i32 %4, 15
  %spec.store.select.i.i = select i1 %or.cond.i.i, i32 16, i32 %.val34.val
  %.not.i.i = icmp eq i32 %spec.store.select.i.i, 0
  br i1 %.not.i.i, label %Vec_IntStartFull.exit, label %Vec_IntAlloc.exit.i

Vec_IntAlloc.exit.i:                              ; preds = %1
  %5 = sext i32 %spec.store.select.i.i to i64
  %6 = shl nsw i64 %5, 2
  %7 = tail call noalias ptr @malloc(i64 noundef %6) #21
  %.not.i = icmp eq ptr %7, null
  br i1 %.not.i, label %Vec_IntStartFull.exit, label %8

8:                                                ; preds = %Vec_IntAlloc.exit.i
  %9 = sext i32 %.val34.val to i64
  %10 = shl nsw i64 %9, 2
  tail call void @llvm.memset.p0.i64(ptr nonnull align 4 %7, i8 -1, i64 %10, i1 false)
  br label %Vec_IntStartFull.exit

Vec_IntStartFull.exit:                            ; preds = %1, %Vec_IntAlloc.exit.i, %8
  %11 = phi ptr [ null, %Vec_IntAlloc.exit.i ], [ %7, %8 ], [ null, %1 ]
  %12 = getelementptr i8, ptr %0, i64 48
  %.val48 = load ptr, ptr %12, align 8
  %13 = getelementptr i8, ptr %.val48, i64 4
  %.val.val49 = load i32, ptr %13, align 4
  %14 = icmp sgt i32 %.val.val49, 0
  br i1 %14, label %.lr.ph, label %.critedge

.lr.ph:                                           ; preds = %Vec_IntStartFull.exit
  %15 = getelementptr i8, ptr %0, i64 64
  br label %16

16:                                               ; preds = %.lr.ph, %65
  %indvars.iv = phi i64 [ 0, %.lr.ph ], [ %indvars.iv.next, %65 ]
  %.val51 = phi ptr [ %.val48, %.lr.ph ], [ %.val, %65 ]
  %17 = getelementptr i8, ptr %.val51, i64 8
  %.val40.val = load ptr, ptr %17, align 8
  %18 = getelementptr inbounds nuw ptr, ptr %.val40.val, i64 %indvars.iv
  %19 = load ptr, ptr %18, align 8
  %.val38 = load ptr, ptr %19, align 8
  %20 = getelementptr i8, ptr %19, i64 32
  %.val39 = load ptr, ptr %20, align 8
  %21 = getelementptr i8, ptr %.val38, i64 32
  %.val38.val = load ptr, ptr %21, align 8
  %.val39.val = load i32, ptr %.val39, align 4
  %22 = getelementptr i8, ptr %.val38.val, i64 8
  %.val38.val.val = load ptr, ptr %22, align 8
  %23 = sext i32 %.val39.val to i64
  %24 = getelementptr inbounds ptr, ptr %.val38.val.val, i64 %23
  %25 = load ptr, ptr %24, align 8
  %.val33 = load i32, ptr %0, align 8
  %.not = icmp eq i32 %.val33, 3
  br i1 %.not, label %26, label %.thread

26:                                               ; preds = %16
  %27 = tail call ptr @Abc_AigConst1(ptr noundef nonnull %0) #19
  %28 = icmp eq ptr %25, %27
  br i1 %28, label %29, label %36

29:                                               ; preds = %26
  %30 = tail call ptr @Abc_ObjName(ptr noundef nonnull %19) #19
  %31 = getelementptr i8, ptr %19, i64 20
  %.val43 = load i32, ptr %31, align 4
  %32 = lshr i32 %.val43, 10
  %33 = and i32 %32, 1
  %34 = xor i32 %33, 1
  %35 = tail call i32 (ptr, ...) @printf(ptr noundef nonnull dereferenceable(1) @.str.141, ptr noundef %30, i32 noundef %34)
  br label %65

36:                                               ; preds = %26
  %.val32.pre = load i32, ptr %0, align 8
  %37 = icmp eq i32 %.val32.pre, 3
  br i1 %37, label %43, label %.thread

.thread:                                          ; preds = %16, %36
  %38 = tail call i32 @Abc_NodeIsConst(ptr noundef %25) #19
  %.not30 = icmp eq i32 %38, 0
  br i1 %.not30, label %43, label %39

39:                                               ; preds = %.thread
  %40 = tail call ptr @Abc_ObjName(ptr noundef nonnull %19) #19
  %41 = tail call i32 @Abc_NodeIsConst1(ptr noundef %25) #19
  %42 = tail call i32 (ptr, ...) @printf(ptr noundef nonnull dereferenceable(1) @.str.141, ptr noundef %40, i32 noundef %41)
  br label %65

43:                                               ; preds = %36, %.thread
  %44 = getelementptr i8, ptr %25, i64 16
  %.val36 = load i32, ptr %44, align 8
  %45 = sext i32 %.val36 to i64
  %46 = getelementptr inbounds i32, ptr %11, i64 %45
  %47 = load i32, ptr %46, align 4
  %48 = icmp eq i32 %47, -1
  br i1 %48, label %49, label %51

49:                                               ; preds = %43
  %50 = trunc nuw nsw i64 %indvars.iv to i32
  store i32 %50, ptr %46, align 4
  br label %65

51:                                               ; preds = %43
  %.val37 = load ptr, ptr %15, align 8
  %52 = getelementptr i8, ptr %.val37, i64 8
  %.val37.val = load ptr, ptr %52, align 8
  %53 = sext i32 %47 to i64
  %54 = getelementptr inbounds ptr, ptr %.val37.val, i64 %53
  %55 = load ptr, ptr %54, align 8
  %56 = tail call ptr @Abc_ObjName(ptr noundef nonnull %19) #19
  %57 = getelementptr i8, ptr %55, i64 20
  %.val42 = load i32, ptr %57, align 4
  %58 = getelementptr i8, ptr %19, i64 20
  %.val41 = load i32, ptr %58, align 4
  %59 = xor i32 %.val41, %.val42
  %60 = and i32 %59, 1024
  %61 = icmp eq i32 %60, 0
  %62 = select i1 %61, ptr @.str.87, ptr @.str.84
  %63 = tail call ptr @Abc_ObjName(ptr noundef %55) #19
  %64 = tail call i32 (ptr, ...) @printf(ptr noundef nonnull dereferenceable(1) @.str.142, ptr noundef %56, ptr noundef nonnull %62, ptr noundef %63)
  br label %65

65:                                               ; preds = %51, %49, %39, %29
  %indvars.iv.next = add nuw nsw i64 %indvars.iv, 1
  %.val = load ptr, ptr %12, align 8
  %66 = getelementptr i8, ptr %.val, i64 4
  %.val.val = load i32, ptr %66, align 4
  %67 = sext i32 %.val.val to i64
  %68 = icmp slt i64 %indvars.iv.next, %67
  br i1 %68, label %16, label %.critedge, !llvm.loop !94

.critedge:                                        ; preds = %65, %Vec_IntStartFull.exit
  %.not.i46 = icmp eq ptr %11, null
  br i1 %.not.i46, label %Vec_IntFree.exit, label %69

69:                                               ; preds = %.critedge
  tail call void @free(ptr noundef nonnull %11) #19
  br label %Vec_IntFree.exit

Vec_IntFree.exit:                                 ; preds = %.critedge, %69
  ret void
}